target datalayout = "e-m:e-p270:32:32-p271:32:32-p272:64:64-i64:64-i128:128-f80:128-n8:16:32:64-S128"
target triple = "x86_64-pc-linux-gnu"

; Function Attrs: nounwind uwtable
define internal i32 @AlterObjectTypeCommandTag(i32 noundef %0) #0 {
  %2 = alloca i32, align 4
  %3 = alloca i32, align 4
  store i32 %0, ptr %2, align 4
  call void @llvm.lifetime.start.p0(i64 4, ptr %3) #11
  %4 = load i32, ptr %2, align 4
  switch i32 %4, label %45 [
    i32 1, label %5
    i32 4, label %6
    i32 5, label %7
    i32 7, label %8
    i32 6, label %9
    i32 8, label %10
    i32 9, label %11
    i32 12, label %12
    i32 13, label %12
    i32 15, label %13
    i32 16, label %14
    i32 17, label %15
    i32 18, label %16
    i32 19, label %17
    i32 20, label %18
    i32 21, label %19
    i32 22, label %20
    i32 24, label %21
    i32 25, label %22
    i32 26, label %23
    i32 28, label %24
    i32 29, label %25
    i32 33, label %26
    i32 34, label %27
    i32 35, label %28
    i32 36, label %29
    i32 37, label %30
    i32 41, label %31
    i32 40, label %31
    i32 42, label %32
    i32 44, label %33
    i32 14, label %34
    i32 45, label %35
    i32 46, label %36
    i32 47, label %37
    i32 48, label %38
    i32 49, label %39
    i32 51, label %40
    i32 23, label %41
    i32 30, label %42
    i32 38, label %43
    i32 39, label %44
  ]

5:                                                ; preds = %1
  store i32 2, ptr %3, align 4
  br label %46

6:                                                ; preds = %1
  store i32 42, ptr %3, align 4
  br label %46

7:                                                ; preds = %1
  store i32 3, ptr %3, align 4
  br label %46

8:                                                ; preds = %1
  store i32 4, ptr %3, align 4
  br label %46

9:                                                ; preds = %1
  store i32 34, ptr %3, align 4
  br label %46

10:                                               ; preds = %1
  store i32 6, ptr %3, align 4
  br label %46

11:                                               ; preds = %1
  store i32 7, ptr %3, align 4
  br label %46

12:                                               ; preds = %1, %1
  store i32 9, ptr %3, align 4
  br label %46

13:                                               ; preds = %1
  store i32 11, ptr %3, align 4
  br label %46

14:                                               ; preds = %1
  store i32 12, ptr %3, align 4
  br label %46

15:                                               ; preds = %1
  store i32 30, ptr %3, align 4
  br label %46

16:                                               ; preds = %1
  store i32 13, ptr %3, align 4
  br label %46

17:                                               ; preds = %1
  store i32 14, ptr %3, align 4
  br label %46

18:                                               ; preds = %1
  store i32 15, ptr %3, align 4
  br label %46

19:                                               ; preds = %1
  store i32 16, ptr %3, align 4
  br label %46

20:                                               ; preds = %1
  store i32 17, ptr %3, align 4
  br label %46

21:                                               ; preds = %1
  store i32 20, ptr %3, align 4
  br label %46

22:                                               ; preds = %1
  store i32 19, ptr %3, align 4
  br label %46

23:                                               ; preds = %1
  store i32 21, ptr %3, align 4
  br label %46

24:                                               ; preds = %1
  store i32 22, ptr %3, align 4
  br label %46

25:                                               ; preds = %1
  store i32 23, ptr %3, align 4
  br label %46

26:                                               ; preds = %1
  store i32 25, ptr %3, align 4
  br label %46

27:                                               ; preds = %1
  store i32 26, ptr %3, align 4
  br label %46

28:                                               ; preds = %1
  store i32 27, ptr %3, align 4
  br label %46

29:                                               ; preds = %1
  store i32 28, ptr %3, align 4
  br label %46

30:                                               ; preds = %1
  store i32 29, ptr %3, align 4
  br label %46

31:                                               ; preds = %1, %1
  store i32 34, ptr %3, align 4
  br label %46

32:                                               ; preds = %1
  store i32 35, ptr %3, align 4
  br label %46

33:                                               ; preds = %1
  store i32 41, ptr %3, align 4
  br label %46

34:                                               ; preds = %1
  store i32 10, ptr %3, align 4
  br label %46

35:                                               ; preds = %1
  store i32 36, ptr %3, align 4
  br label %46

36:                                               ; preds = %1
  store i32 37, ptr %3, align 4
  br label %46

37:                                               ; preds = %1
  store i32 38, ptr %3, align 4
  br label %46

38:                                               ; preds = %1
  store i32 39, ptr %3, align 4
  br label %46

39:                                               ; preds = %1
  store i32 42, ptr %3, align 4
  br label %46

40:                                               ; preds = %1
  store i32 44, ptr %3, align 4
  br label %46

41:                                               ; preds = %1
  store i32 18, ptr %3, align 4
  br label %46

42:                                               ; preds = %1
  store i32 24, ptr %3, align 4
  br label %46

43:                                               ; preds = %1
  store i32 32, ptr %3, align 4
  br label %46

44:                                               ; preds = %1
  store i32 31, ptr %3, align 4
  br label %46

45:                                               ; preds = %1
  store i32 0, ptr %3, align 4
  br label %46

46:                                               ; preds = %45, %44, %43, %42, %41, %40, %39, %38, %37, %36, %35, %34, %33, %32, %31, %30, %29, %28, %27, %26, %25, %24, %23, %22, %21, %20, %19, %18, %17, %16, %15, %14, %13, %12, %11, %10, %9, %8, %7, %6, %5
  %47 = load i32, ptr %3, align 4
  call void @llvm.lifetime.end.p0(i64 4, ptr %3) #11
  ret i32 %47
}